; ModuleID = '14/256.c'
source_filename = "14/256.c"
target datalayout = "e-m:e-p270:32:32-p271:32:32-p272:64:64-i64:64-f80:128-n8:16:32:64-S128"
target triple = "x86_64-pc-linux-gnu"

%struct.student = type { i32, i32, i32, i32 }

@.str = private unnamed_addr constant [3 x i8] c"%d\00", align 1
@.str.1 = private unnamed_addr constant [7 x i8] c"%d%d%d\00", align 1
@.str.2 = private unnamed_addr constant [7 x i8] c"%d %d\0A\00", align 1

; Function Attrs: noinline nounwind uwtable
define dso_local i32 @main() #0 {
  %1 = alloca i32, align 4
  %2 = alloca i32, align 4
  %3 = alloca i32, align 4
  %4 = alloca i32, align 4
  %5 = alloca i32, align 4
  %6 = alloca i32, align 4
  %7 = alloca %struct.student*, align 8
  store i32 0, i32* %1, align 4
  %8 = call i32 (i8*, ...) @__isoc99_scanf(i8* getelementptr inbounds ([3 x i8], [3 x i8]* @.str, i64 0, i64 0), i32* %2)
  %9 = load i32, i32* %2, align 4
  %10 = sext i32 %9 to i64
  %11 = mul i64 16, %10
  %12 = call noalias i8* @malloc(i64 %11) #3
  %13 = bitcast i8* %12 to %struct.student*
  store %struct.student* %13, %struct.student** %7, align 8
  store i32 0, i32* %3, align 4
  br label %14

14:                                               ; preds = %53, %0
  %15 = load i32, i32* %3, align 4
  %16 = load i32, i32* %2, align 4
  %17 = icmp slt i32 %15, %16
  br i1 %17, label %18, label %56

18:                                               ; preds = %14
  %19 = load %struct.student*, %struct.student** %7, align 8
  %20 = load i32, i32* %3, align 4
  %21 = sext i32 %20 to i64
  %22 = getelementptr inbounds %struct.student, %struct.student* %19, i64 %21
  %23 = getelementptr inbounds %struct.student, %struct.student* %22, i32 0, i32 0
  %24 = load %struct.student*, %struct.student** %7, align 8
  %25 = load i32, i32* %3, align 4
  %26 = sext i32 %25 to i64
  %27 = getelementptr inbounds %struct.student, %struct.student* %24, i64 %26
  %28 = getelementptr inbounds %struct.student, %struct.student* %27, i32 0, i32 1
  %29 = load %struct.student*, %struct.student** %7, align 8
  %30 = load i32, i32* %3, align 4
  %31 = sext i32 %30 to i64
  %32 = getelementptr inbounds %struct.student, %struct.student* %29, i64 %31
  %33 = getelementptr inbounds %struct.student, %struct.student* %32, i32 0, i32 2
  %34 = call i32 (i8*, ...) @__isoc99_scanf(i8* getelementptr inbounds ([7 x i8], [7 x i8]* @.str.1, i64 0, i64 0), i32* %23, i32* %28, i32* %33)
  %35 = load %struct.student*, %struct.student** %7, align 8
  %36 = load i32, i32* %3, align 4
  %37 = sext i32 %36 to i64
  %38 = getelementptr inbounds %struct.student, %struct.student* %35, i64 %37
  %39 = getelementptr inbounds %struct.student, %struct.student* %38, i32 0, i32 1
  %40 = load i32, i32* %39, align 4
  %41 = load %struct.student*, %struct.student** %7, align 8
  %42 = load i32, i32* %3, align 4
  %43 = sext i32 %42 to i64
  %44 = getelementptr inbounds %struct.student, %struct.student* %41, i64 %43
  %45 = getelementptr inbounds %struct.student, %struct.student* %44, i32 0, i32 2
  %46 = load i32, i32* %45, align 4
  %47 = add nsw i32 %40, %46
  %48 = load %struct.student*, %struct.student** %7, align 8
  %49 = load i32, i32* %3, align 4
  %50 = sext i32 %49 to i64
  %51 = getelementptr inbounds %struct.student, %struct.student* %48, i64 %50
  %52 = getelementptr inbounds %struct.student, %struct.student* %51, i32 0, i32 3
  store i32 %47, i32* %52, align 4
  br label %53

53:                                               ; preds = %18
  %54 = load i32, i32* %3, align 4
  %55 = add nsw i32 %54, 1
  store i32 %55, i32* %3, align 4
  br label %14

56:                                               ; preds = %14
  store i32 0, i32* %4, align 4
  br label %57

57:                                               ; preds = %138, %56
  %58 = load i32, i32* %4, align 4
  %59 = icmp slt i32 %58, 3
  br i1 %59, label %60, label %141

60:                                               ; preds = %57
  %61 = load i32, i32* %2, align 4
  %62 = sub nsw i32 %61, 1
  store i32 %62, i32* %3, align 4
  br label %63

63:                                               ; preds = %134, %60
  %64 = load i32, i32* %3, align 4
  %65 = load i32, i32* %4, align 4
  %66 = icmp sgt i32 %64, %65
  br i1 %66, label %67, label %137

67:                                               ; preds = %63
  %68 = load %struct.student*, %struct.student** %7, align 8
  %69 = load i32, i32* %3, align 4
  %70 = sub nsw i32 %69, 1
  %71 = sext i32 %70 to i64
  %72 = getelementptr inbounds %struct.student, %struct.student* %68, i64 %71
  %73 = getelementptr inbounds %struct.student, %struct.student* %72, i32 0, i32 3
  %74 = load i32, i32* %73, align 4
  %75 = load %struct.student*, %struct.student** %7, align 8
  %76 = load i32, i32* %3, align 4
  %77 = sext i32 %76 to i64
  %78 = getelementptr inbounds %struct.student, %struct.student* %75, i64 %77
  %79 = getelementptr inbounds %struct.student, %struct.student* %78, i32 0, i32 3
  %80 = load i32, i32* %79, align 4
  %81 = icmp slt i32 %74, %80
  br i1 %81, label %82, label %133

82:                                               ; preds = %67
  %83 = load %struct.student*, %struct.student** %7, align 8
  %84 = load i32, i32* %3, align 4
  %85 = sub nsw i32 %84, 1
  %86 = sext i32 %85 to i64
  %87 = getelementptr inbounds %struct.student, %struct.student* %83, i64 %86
  %88 = getelementptr inbounds %struct.student, %struct.student* %87, i32 0, i32 3
  %89 = load i32, i32* %88, align 4
  store i32 %89, i32* %5, align 4
  %90 = load %struct.student*, %struct.student** %7, align 8
  %91 = load i32, i32* %3, align 4
  %92 = sext i32 %91 to i64
  %93 = getelementptr inbounds %struct.student, %struct.student* %90, i64 %92
  %94 = getelementptr inbounds %struct.student, %struct.student* %93, i32 0, i32 3
  %95 = load i32, i32* %94, align 4
  %96 = load %struct.student*, %struct.student** %7, align 8
  %97 = load i32, i32* %3, align 4
  %98 = sub nsw i32 %97, 1
  %99 = sext i32 %98 to i64
  %100 = getelementptr inbounds %struct.student, %struct.student* %96, i64 %99
  %101 = getelementptr inbounds %struct.student, %struct.student* %100, i32 0, i32 3
  store i32 %95, i32* %101, align 4
  %102 = load i32, i32* %5, align 4
  %103 = load %struct.student*, %struct.student** %7, align 8
  %104 = load i32, i32* %3, align 4
  %105 = sext i32 %104 to i64
  %106 = getelementptr inbounds %struct.student, %struct.student* %103, i64 %105
  %107 = getelementptr inbounds %struct.student, %struct.student* %106, i32 0, i32 3
  store i32 %102, i32* %107, align 4
  %108 = load %struct.student*, %struct.student** %7, align 8
  %109 = load i32, i32* %3, align 4
  %110 = sub nsw i32 %109, 1
  %111 = sext i32 %110 to i64
  %112 = getelementptr inbounds %struct.student, %struct.student* %108, i64 %111
  %113 = getelementptr inbounds %struct.student, %struct.student* %112, i32 0, i32 0
  %114 = load i32, i32* %113, align 4
  store i32 %114, i32* %6, align 4
  %115 = load %struct.student*, %struct.student** %7, align 8
  %116 = load i32, i32* %3, align 4
  %117 = sext i32 %116 to i64
  %118 = getelementptr inbounds %struct.student, %struct.student* %115, i64 %117
  %119 = getelementptr inbounds %struct.student, %struct.student* %118, i32 0, i32 0
  %120 = load i32, i32* %119, align 4
  %121 = load %struct.student*, %struct.student** %7, align 8
  %122 = load i32, i32* %3, align 4
  %123 = sub nsw i32 %122, 1
  %124 = sext i32 %123 to i64
  %125 = getelementptr inbounds %struct.student, %struct.student* %121, i64 %124
  %126 = getelementptr inbounds %struct.student, %struct.student* %125, i32 0, i32 0
  store i32 %120, i32* %126, align 4
  %127 = load i32, i32* %6, align 4
  %128 = load %struct.student*, %struct.student** %7, align 8
  %129 = load i32, i32* %3, align 4
  %130 = sext i32 %129 to i64
  %131 = getelementptr inbounds %struct.student, %struct.student* %128, i64 %130
  %132 = getelementptr inbounds %struct.student, %struct.student* %131, i32 0, i32 0
  store i32 %127, i32* %132, align 4
  br label %133

133:                                              ; preds = %82, %67
  br label %134

134:                                              ; preds = %133
  %135 = load i32, i32* %3, align 4
  %136 = add nsw i32 %135, -1
  store i32 %136, i32* %3, align 4
  br label %63

137:                                              ; preds = %63
  br label %138

138:                                              ; preds = %137
  %139 = load i32, i32* %4, align 4
  %140 = add nsw i32 %139, 1
  store i32 %140, i32* %4, align 4
  br label %57

141:                                              ; preds = %57
  store i32 0, i32* %3, align 4
  br label %142

142:                                              ; preds = %159, %141
  %143 = load i32, i32* %3, align 4
  %144 = icmp slt i32 %143, 3
  br i1 %144, label %145, label %162

145:                                              ; preds = %142
  %146 = load %struct.student*, %struct.student** %7, align 8
  %147 = load i32, i32* %3, align 4
  %148 = sext i32 %147 to i64
  %149 = getelementptr inbounds %struct.student, %struct.student* %146, i64 %148
  %150 = getelementptr inbounds %struct.student, %struct.student* %149, i32 0, i32 0
  %151 = load i32, i32* %150, align 4
  %152 = load %struct.student*, %struct.student** %7, align 8
  %153 = load i32, i32* %3, align 4
  %154 = sext i32 %153 to i64
  %155 = getelementptr inbounds %struct.student, %struct.student* %152, i64 %154
  %156 = getelementptr inbounds %struct.student, %struct.student* %155, i32 0, i32 3
  %157 = load i32, i32* %156, align 4
  %158 = call i32 (i8*, ...) @printf(i8* getelementptr inbounds ([7 x i8], [7 x i8]* @.str.2, i64 0, i64 0), i32 %151, i32 %157)
  br label %159

159:                                              ; preds = %145
  %160 = load i32, i32* %3, align 4
  %161 = add nsw i32 %160, 1
  store i32 %161, i32* %3, align 4
  br label %142

162:                                              ; preds = %142
  ret i32 0
}

declare dso_local i32 @__isoc99_scanf(i8*, ...) #1

; Function Attrs: nounwind
declare dso_local noalias i8* @malloc(i64) #2

declare dso_local i32 @printf(i8*, ...) #1


!llvm.module.flags = !{!0}
!llvm.ident = !{!1}

!0 = !{i32 1, !"wchar_size", i32 4}
!1 = !{!"clang version 10.0.0-4ubuntu1 "}
